target datalayout = "e-m:e-p270:32:32-p271:32:32-p272:64:64-i64:64-i128:128-f80:128-n8:16:32:64-S128"
target triple = "x86_64-pc-linux-gnu"

@tcg_allowed = external global i8, align 1

; Function Attrs: nounwind sspstrong uwtable
define internal void @cpu_common_unrealizefn(ptr noundef %0) #0 {
  %2 = alloca ptr, align 8
  %3 = alloca ptr, align 8
  store ptr %0, ptr %2, align 8
  call void @llvm.lifetime.start.p0(i64 8, ptr %3) #13
  %4 = load ptr, ptr %2, align 8
  store ptr %4, ptr %3, align 8
  %5 = load i8, ptr @tcg_allowed, align 1, !range !11, !noundef !12
  %6 = trunc i8 %5 to i1
  br i1 %6, label %7, label %9

7:                                                ; preds = %1
  %8 = load ptr, ptr %3, align 8
  call void @qemu_plugin_vcpu_exit_hook(ptr noundef %8)
  br label %9

9:                                                ; preds = %7, %1
  %10 = load ptr, ptr %3, align 8
  call void @cpu_exec_unrealizefn(ptr noundef %10)
  call void @llvm.lifetime.end.p0(i64 8, ptr %3) #13
  ret void
}