; Function Attrs: nounwind sspstrong uwtable
define internal void @cpu_common_unrealizefn(ptr noundef %0) #0 {
  %2 = load i8, ptr @tcg_allowed, align 1, !range !10, !noundef !11
  %3 = trunc nuw i8 %2 to i1
  br i1 %3, label %4, label %5

4:                                                ; preds = %1
  tail call void @qemu_plugin_vcpu_exit_hook(ptr noundef %0) #12
  br label %5

5:                                                ; preds = %4, %1
  tail call void @cpu_exec_unrealizefn(ptr noundef %0) #12
  ret void
}